; Function Attrs: mustprogress nounwind uwtable
define internal void @_ZN6hermes2vm17sampling_profiler12_GLOBAL__N_121SamplingProfilerPosixD2Ev(ptr noundef nonnull align 8 dereferenceable(264) %this) unnamed_addr #0 align 2 {
entry:
  store ptr getelementptr inbounds ({ [4 x ptr] }, ptr @_ZTVN6hermes2vm17sampling_profiler12_GLOBAL__N_121SamplingProfilerPosixE, i64 0, i32 0, i64 2), ptr %this, align 8
  %0 = load atomic i8, ptr @_ZGVZN6hermes2vm17sampling_profiler7Sampler3getEvE8instance acquire, align 8
  %guard.uninitialized.i = icmp eq i8 %0, 0
  br i1 %guard.uninitialized.i, label %init.check.i, label %_ZN6hermes2vm17sampling_profiler7Sampler3getEv.exit, !prof !4

init.check.i:                                     ; preds = %entry
  %1 = tail call i32 @__cxa_guard_acquire(ptr nonnull @_ZGVZN6hermes2vm17sampling_profiler7Sampler3getEvE8instance) #14
  %tobool.not.i = icmp eq i32 %1, 0
  br i1 %tobool.not.i, label %_ZN6hermes2vm17sampling_profiler7Sampler3getEv.exit, label %init.i

init.i:                                           ; preds = %init.check.i
  %call.i = tail call noalias noundef nonnull dereferenceable(248) ptr @_Znwm(i64 noundef 248) #15
  tail call fastcc void @_ZN6hermes2vm17sampling_profiler12_GLOBAL__N_112SamplerPosixC2Ev(ptr noundef nonnull align 8 dereferenceable(248) %call.i)
  store ptr %call.i, ptr @_ZZN6hermes2vm17sampling_profiler7Sampler3getEvE8instance, align 8
  tail call void @__cxa_guard_release(ptr nonnull @_ZGVZN6hermes2vm17sampling_profiler7Sampler3getEvE8instance) #14
  br label %_ZN6hermes2vm17sampling_profiler7Sampler3getEv.exit

_ZN6hermes2vm17sampling_profiler7Sampler3getEv.exit: ; preds = %entry, %init.check.i, %init.i
  %2 = load ptr, ptr @_ZZN6hermes2vm17sampling_profiler7Sampler3getEvE8instance, align 8
  tail call void @_ZN6hermes2vm17sampling_profiler7Sampler17unregisterRuntimeEPNS0_16SamplingProfilerE(ptr noundef nonnull align 8 dereferenceable(208) %2, ptr noundef nonnull %this) #14
  tail call void @_ZN6hermes2vm16SamplingProfilerD2Ev(ptr noundef nonnull align 8 dereferenceable(256) %this) #14
  ret void
}